target datalayout = "e-m:e-p270:32:32-p271:32:32-p272:64:64-i64:64-i128:128-f80:128-n8:16:32:64-S128"
target triple = "x86_64-pc-linux-gnu"

; Function Attrs: nounwind uwtable
define internal i32 @zueci_gbk_u(ptr noundef %0, i32 noundef %1, i32 noundef %2, ptr noundef %3) #0 {
  %5 = alloca i32, align 4
  %6 = alloca ptr, align 8
  %7 = alloca i32, align 4
  %8 = alloca i32, align 4
  %9 = alloca ptr, align 8
  %10 = alloca i8, align 1
  %11 = alloca i8, align 1
  %12 = alloca i32, align 4
  %13 = alloca i32, align 4
  %14 = alloca i16, align 2
  %15 = alloca i32, align 4
  %16 = alloca i32, align 4
  %17 = alloca i32, align 4
  store ptr %0, ptr %6, align 8
  store i32 %1, ptr %7, align 4
  store i32 %2, ptr %8, align 4
  store ptr %3, ptr %9, align 8
  %18 = load ptr, ptr %6, align 8
  %19 = getelementptr inbounds i8, ptr %18, i64 0
  %20 = load i8, ptr %19, align 1
  store i8 %20, ptr %10, align 1
  %21 = load i8, ptr %10, align 1
  %22 = zext i8 %21 to i32
  %23 = icmp slt i32 %22, 128
  br i1 %23, label %24, label %28

24:                                               ; preds = %4
  %25 = load i8, ptr %10, align 1
  %26 = zext i8 %25 to i32
  %27 = load ptr, ptr %9, align 8
  store i32 %26, ptr %27, align 4
  store i32 1, ptr %5, align 4
  br label %231

28:                                               ; preds = %4
  %29 = load i32, ptr %7, align 4
  %30 = icmp ult i32 %29, 2
  br i1 %30, label %39, label %31

31:                                               ; preds = %28
  %32 = load i8, ptr %10, align 1
  %33 = zext i8 %32 to i32
  %34 = icmp slt i32 %33, 129
  br i1 %34, label %39, label %35

35:                                               ; preds = %31
  %36 = load i8, ptr %10, align 1
  %37 = zext i8 %36 to i32
  %38 = icmp eq i32 %37, 255
  br i1 %38, label %39, label %40

39:                                               ; preds = %35, %31, %28
  store i32 0, ptr %5, align 4
  br label %231

40:                                               ; preds = %35
  %41 = load ptr, ptr %6, align 8
  %42 = getelementptr inbounds i8, ptr %41, i64 1
  %43 = load i8, ptr %42, align 1
  store i8 %43, ptr %11, align 1
  %44 = load i8, ptr %11, align 1
  %45 = zext i8 %44 to i32
  %46 = icmp slt i32 %45, 64
  br i1 %46, label %55, label %47

47:                                               ; preds = %40
  %48 = load i8, ptr %11, align 1
  %49 = zext i8 %48 to i32
  %50 = icmp eq i32 %49, 127
  br i1 %50, label %55, label %51

51:                                               ; preds = %47
  %52 = load i8, ptr %11, align 1
  %53 = zext i8 %52 to i32
  %54 = icmp eq i32 %53, 255
  br i1 %54, label %55, label %56

55:                                               ; preds = %51, %47, %40
  store i32 0, ptr %5, align 4
  br label %231

56:                                               ; preds = %51
  %57 = load i8, ptr %10, align 1
  %58 = zext i8 %57 to i32
  %59 = icmp sge i32 %58, 161
  br i1 %59, label %60, label %64

60:                                               ; preds = %56
  %61 = load i8, ptr %10, align 1
  %62 = zext i8 %61 to i32
  %63 = icmp sle i32 %62, 169
  br i1 %63, label %72, label %64

64:                                               ; preds = %60, %56
  %65 = load i8, ptr %10, align 1
  %66 = zext i8 %65 to i32
  %67 = icmp sge i32 %66, 176
  br i1 %67, label %68, label %104

68:                                               ; preds = %64
  %69 = load i8, ptr %10, align 1
  %70 = zext i8 %69 to i32
  %71 = icmp sle i32 %70, 247
  br i1 %71, label %72, label %104

72:                                               ; preds = %68, %60
  %73 = load i8, ptr %11, align 1
  %74 = zext i8 %73 to i32
  %75 = icmp sge i32 %74, 161
  br i1 %75, label %76, label %104

76:                                               ; preds = %72
  %77 = load i8, ptr %10, align 1
  %78 = zext i8 %77 to i32
  %79 = icmp eq i32 %78, 161
  br i1 %79, label %80, label %86

80:                                               ; preds = %76
  %81 = load i8, ptr %11, align 1
  %82 = zext i8 %81 to i32
  %83 = icmp eq i32 %82, 164
  br i1 %83, label %84, label %86

84:                                               ; preds = %80
  %85 = load ptr, ptr %9, align 8
  store i32 183, ptr %85, align 4
  store i32 2, ptr %5, align 4
  br label %231

86:                                               ; preds = %80, %76
  %87 = load i8, ptr %10, align 1
  %88 = zext i8 %87 to i32
  %89 = icmp eq i32 %88, 161
  br i1 %89, label %90, label %96

90:                                               ; preds = %86
  %91 = load i8, ptr %11, align 1
  %92 = zext i8 %91 to i32
  %93 = icmp eq i32 %92, 170
  br i1 %93, label %94, label %96

94:                                               ; preds = %90
  %95 = load ptr, ptr %9, align 8
  store i32 8212, ptr %95, align 4
  store i32 2, ptr %5, align 4
  br label %231

96:                                               ; preds = %90, %86
  %97 = load ptr, ptr %6, align 8
  %98 = load i32, ptr %7, align 4
  %99 = load ptr, ptr %9, align 8
  %100 = call i32 @zueci_gb2312_u(ptr noundef %97, i32 noundef %98, i32 noundef 0, ptr noundef %99)
  %101 = icmp ne i32 %100, 0
  br i1 %101, label %102, label %103

102:                                              ; preds = %96
  store i32 2, ptr %5, align 4
  br label %231

103:                                              ; preds = %96
  br label %104

104:                                              ; preds = %103, %72, %68, %64
  %105 = load i8, ptr %10, align 1
  %106 = zext i8 %105 to i16
  %107 = zext i16 %106 to i32
  %108 = shl i32 %107, 8
  %109 = load i8, ptr %11, align 1
  %110 = zext i8 %109 to i32
  %111 = or i32 %108, %110
  %112 = trunc i32 %111 to i16
  store i16 %112, ptr %14, align 2
  %113 = load i16, ptr %14, align 2
  %114 = zext i16 %113 to i32
  %115 = load i16, ptr @zueci_gbk_nonuro_mb, align 16
  %116 = zext i16 %115 to i32
  %117 = icmp sge i32 %114, %116
  br i1 %117, label %118, label %167

118:                                              ; preds = %104
  %119 = load i16, ptr %14, align 2
  %120 = zext i16 %119 to i32
  %121 = load i16, ptr getelementptr inbounds ([209 x i16], ptr @zueci_gbk_nonuro_mb, i64 0, i64 208), align 16
  %122 = zext i16 %121 to i32
  %123 = icmp sle i32 %120, %122
  br i1 %123, label %124, label %167

124:                                              ; preds = %118
  store i32 0, ptr %15, align 4
  store i32 208, ptr %16, align 4
  br label %125

125:                                              ; preds = %165, %124
  %126 = load i32, ptr %15, align 4
  %127 = load i32, ptr %16, align 4
  %128 = icmp sle i32 %126, %127
  br i1 %128, label %129, label %166

129:                                              ; preds = %125
  %130 = load i32, ptr %15, align 4
  %131 = load i32, ptr %16, align 4
  %132 = add nsw i32 %130, %131
  %133 = ashr i32 %132, 1
  store i32 %133, ptr %17, align 4
  %134 = load i32, ptr %17, align 4
  %135 = sext i32 %134 to i64
  %136 = getelementptr inbounds [209 x i16], ptr @zueci_gbk_nonuro_mb, i64 0, i64 %135
  %137 = load i16, ptr %136, align 2
  %138 = zext i16 %137 to i32
  %139 = load i16, ptr %14, align 2
  %140 = zext i16 %139 to i32
  %141 = icmp slt i32 %138, %140
  br i1 %141, label %142, label %145

142:                                              ; preds = %129
  %143 = load i32, ptr %17, align 4
  %144 = add nsw i32 %143, 1
  store i32 %144, ptr %15, align 4
  br label %165

145:                                              ; preds = %129
  %146 = load i32, ptr %17, align 4
  %147 = sext i32 %146 to i64
  %148 = getelementptr inbounds [209 x i16], ptr @zueci_gbk_nonuro_mb, i64 0, i64 %147
  %149 = load i16, ptr %148, align 2
  %150 = zext i16 %149 to i32
  %151 = load i16, ptr %14, align 2
  %152 = zext i16 %151 to i32
  %153 = icmp sgt i32 %150, %152
  br i1 %153, label %154, label %157

154:                                              ; preds = %145
  %155 = load i32, ptr %17, align 4
  %156 = sub nsw i32 %155, 1
  store i32 %156, ptr %16, align 4
  br label %164

157:                                              ; preds = %145
  %158 = load i32, ptr %17, align 4
  %159 = sext i32 %158 to i64
  %160 = getelementptr inbounds [209 x i16], ptr @zueci_gbk_nonuro_u, i64 0, i64 %159
  %161 = load i16, ptr %160, align 2
  %162 = zext i16 %161 to i32
  %163 = load ptr, ptr %9, align 8
  store i32 %162, ptr %163, align 4
  store i32 2, ptr %5, align 4
  br label %231

164:                                              ; preds = %154
  br label %165

165:                                              ; preds = %164, %142
  br label %125, !llvm.loop !34

166:                                              ; preds = %125
  br label %167

167:                                              ; preds = %166, %118, %104
  %168 = load i8, ptr %10, align 1
  %169 = zext i8 %168 to i32
  %170 = icmp sge i32 %169, 161
  br i1 %170, label %171, label %184

171:                                              ; preds = %167
  %172 = load i8, ptr %10, align 1
  %173 = zext i8 %172 to i32
  %174 = icmp sle i32 %173, 167
  br i1 %174, label %183, label %175

175:                                              ; preds = %171
  %176 = load i8, ptr %10, align 1
  %177 = zext i8 %176 to i32
  %178 = icmp sge i32 %177, 168
  br i1 %178, label %179, label %184

179:                                              ; preds = %175
  %180 = load i8, ptr %11, align 1
  %181 = zext i8 %180 to i32
  %182 = icmp sge i32 %181, 161
  br i1 %182, label %183, label %184

183:                                              ; preds = %179, %171
  store i32 0, ptr %5, align 4
  br label %231

184:                                              ; preds = %179, %175, %167
  %185 = load i8, ptr %10, align 1
  %186 = zext i8 %185 to i32
  %187 = icmp sge i32 %186, 168
  br i1 %187, label %188, label %203

188:                                              ; preds = %184
  %189 = load i8, ptr %10, align 1
  %190 = zext i8 %189 to i32
  %191 = sub nsw i32 %190, 168
  %192 = mul nsw i32 96, %191
  %193 = add nsw i32 6080, %192
  %194 = load i8, ptr %11, align 1
  %195 = zext i8 %194 to i32
  %196 = add nsw i32 %193, %195
  %197 = sub nsw i32 %196, 64
  %198 = load i8, ptr %11, align 1
  %199 = zext i8 %198 to i32
  %200 = icmp sgt i32 %199, 127
  %201 = zext i1 %200 to i32
  %202 = sub nsw i32 %197, %201
  store i32 %202, ptr %12, align 4
  br label %217

203:                                              ; preds = %184
  %204 = load i8, ptr %10, align 1
  %205 = zext i8 %204 to i32
  %206 = sub nsw i32 %205, 129
  %207 = mul nsw i32 190, %206
  %208 = load i8, ptr %11, align 1
  %209 = zext i8 %208 to i32
  %210 = add nsw i32 %207, %209
  %211 = sub nsw i32 %210, 64
  %212 = load i8, ptr %11, align 1
  %213 = zext i8 %212 to i32
  %214 = icmp sgt i32 %213, 127
  %215 = zext i1 %214 to i32
  %216 = sub nsw i32 %211, %215
  store i32 %216, ptr %12, align 4
  br label %217

217:                                              ; preds = %203, %188
  %218 = load i32, ptr %12, align 4
  %219 = icmp slt i32 %218, 14352
  br i1 %219, label %220, label %230

220:                                              ; preds = %217
  %221 = load i32, ptr %12, align 4
  %222 = sext i32 %221 to i64
  %223 = getelementptr inbounds [14352 x i16], ptr @zueci_gbk_mb_u, i64 0, i64 %222
  %224 = load i16, ptr %223, align 2
  %225 = zext i16 %224 to i32
  store i32 %225, ptr %13, align 4
  %226 = icmp ne i32 %225, 0
  br i1 %226, label %227, label %230

227:                                              ; preds = %220
  %228 = load i32, ptr %13, align 4
  %229 = load ptr, ptr %9, align 8
  store i32 %228, ptr %229, align 4
  store i32 2, ptr %5, align 4
  br label %231

230:                                              ; preds = %220, %217
  store i32 0, ptr %5, align 4
  br label %231

231:                                              ; preds = %230, %227, %183, %157, %102, %94, %84, %55, %39, %24
  %232 = load i32, ptr %5, align 4
  ret i32 %232
}