; Function Attrs: nofree norecurse nosync nounwind memory(argmem: readwrite) uwtable
define internal noundef i32 @zueci_gbk_u(ptr nocapture noundef readonly %0, i32 noundef %1, i32 %2, ptr nocapture noundef writeonly %3) #3 {
  %5 = load i8, ptr %0, align 1
  %6 = zext i8 %5 to i32
  %7 = icmp sgt i8 %5, -1
  br i1 %7, label %.sink.split, label %8

8:                                                ; preds = %4
  %9 = icmp ult i32 %1, 2
  br i1 %9, label %68, label %switch.early.test

switch.early.test:                                ; preds = %8
  switch i8 %5, label %10 [
    i8 -1, label %68
    i8 -128, label %68
  ]

10:                                               ; preds = %switch.early.test
  %11 = getelementptr inbounds i8, ptr %0, i64 1
  %12 = load i8, ptr %11, align 1
  %13 = zext i8 %12 to i32
  %14 = icmp eq i8 %12, 127
  %15 = add i8 %12, 1
  %16 = icmp ult i8 %15, 65
  %or.cond11 = or i1 %14, %16
  br i1 %or.cond11, label %68, label %17

17:                                               ; preds = %10
  %18 = icmp ugt i8 %5, -96
  %19 = add nsw i8 %5, 95
  %or.cond14 = icmp ult i8 %19, 9
  br i1 %or.cond14, label %23, label %20

20:                                               ; preds = %17
  %21 = add nsw i8 %5, 80
  %or.cond17 = icmp ult i8 %21, 72
  %22 = icmp ugt i8 %12, -96
  %or.cond20 = and i1 %or.cond17, %22
  br i1 %or.cond20, label %.thread.thread, label %29

23:                                               ; preds = %17
  %.old19 = icmp ugt i8 %12, -96
  br i1 %.old19, label %24, label %29

24:                                               ; preds = %23
  %25 = icmp eq i8 %5, -95
  %26 = icmp eq i8 %12, -92
  %or.cond24 = and i1 %25, %26
  br i1 %or.cond24, label %.sink.split, label %.thread

.thread:                                          ; preds = %24
  %27 = icmp eq i8 %12, -86
  %or.cond28 = and i1 %27, %25
  br i1 %or.cond28, label %.sink.split, label %.thread.thread

.thread.thread:                                   ; preds = %20, %.thread
  %28 = tail call i32 @zueci_gb2312_u(ptr noundef nonnull %0, i32 noundef %1, i32 poison, ptr noundef %3), !range !15
  %.not = icmp eq i32 %28, 0
  br i1 %.not, label %29, label %68

29:                                               ; preds = %.thread.thread, %23, %20
  %30 = shl nuw nsw i32 %6, 8
  %31 = or disjoint i32 %30, %13
  %32 = add nsw i32 %31, -41380
  %or.cond103 = icmp ult i32 %32, 23724
  br i1 %or.cond103, label %.preheader, label %.loopexit

.preheader:                                       ; preds = %29, %50
  %.089109 = phi i32 [ %.1, %50 ], [ 208, %29 ]
  %.090108 = phi i32 [ %.191, %50 ], [ 0, %29 ]
  %33 = add nsw i32 %.089109, %.090108
  %34 = ashr i32 %33, 1
  %35 = sext i32 %34 to i64
  %36 = getelementptr inbounds [209 x i16], ptr @zueci_gbk_nonuro_mb, i64 0, i64 %35
  %37 = load i16, ptr %36, align 2
  %38 = zext i16 %37 to i32
  %39 = icmp ugt i32 %31, %38
  br i1 %39, label %40, label %42

40:                                               ; preds = %.preheader
  %41 = add nsw i32 %34, 1
  br label %50

42:                                               ; preds = %.preheader
  %43 = icmp ult i32 %31, %38
  br i1 %43, label %44, label %46

44:                                               ; preds = %42
  %45 = add nsw i32 %34, -1
  br label %50

46:                                               ; preds = %42
  %47 = getelementptr inbounds [209 x i16], ptr @zueci_gbk_nonuro_u, i64 0, i64 %35
  %48 = load i16, ptr %47, align 2
  %49 = zext i16 %48 to i32
  br label %.sink.split

50:                                               ; preds = %44, %40
  %.191 = phi i32 [ %41, %40 ], [ %.090108, %44 ]
  %.1 = phi i32 [ %.089109, %40 ], [ %45, %44 ]
  %.not100 = icmp sgt i32 %.191, %.1
  br i1 %.not100, label %.loopexit, label %.preheader, !llvm.loop !31

.loopexit:                                        ; preds = %50, %29
  br i1 %18, label %51, label %54

51:                                               ; preds = %.loopexit
  %52 = icmp ult i8 %5, -88
  %53 = icmp ugt i8 %12, -96
  %or.cond104 = or i1 %52, %53
  br i1 %or.cond104, label %68, label %54

54:                                               ; preds = %.loopexit, %51
  %.sink117 = phi i32 [ 96, %51 ], [ 190, %.loopexit ]
  %.sink115 = phi i32 [ -10112, %51 ], [ -24574, %.loopexit ]
  %55 = mul nuw nsw i32 %.sink117, %6
  %56 = ashr i8 %12, 7
  %57 = sext i8 %56 to i32
  %58 = add nsw i32 %55, %.sink115
  %59 = add nsw i32 %58, %13
  %60 = add nsw i32 %59, %57
  %61 = icmp slt i32 %60, 14352
  br i1 %61, label %62, label %68

62:                                               ; preds = %54
  %63 = sext i32 %60 to i64
  %64 = getelementptr inbounds [14352 x i16], ptr @zueci_gbk_mb_u, i64 0, i64 %63
  %65 = load i16, ptr %64, align 2
  %.not102 = icmp eq i16 %65, 0
  br i1 %.not102, label %68, label %66

66:                                               ; preds = %62
  %67 = zext i16 %65 to i32
  br label %.sink.split

.sink.split:                                      ; preds = %.thread, %24, %4, %46, %66
  %.sink = phi i32 [ %67, %66 ], [ %49, %46 ], [ %6, %4 ], [ 183, %24 ], [ 8212, %.thread ]
  %.0.ph = phi i32 [ 2, %66 ], [ 2, %46 ], [ 1, %4 ], [ 2, %24 ], [ 2, %.thread ]
  store i32 %.sink, ptr %3, align 4
  br label %68

68:                                               ; preds = %.sink.split, %switch.early.test, %switch.early.test, %8, %54, %62, %51, %.thread.thread, %10
  %.0 = phi i32 [ 0, %switch.early.test ], [ 0, %10 ], [ 2, %.thread.thread ], [ 0, %51 ], [ 0, %62 ], [ 0, %54 ], [ 0, %8 ], [ 0, %switch.early.test ], [ %.0.ph, %.sink.split ]
  ret i32 %.0
}